target datalayout = "e-m:e-p270:32:32-p271:32:32-p272:64:64-i64:64-i128:128-f80:128-n8:16:32:64-S128"
target triple = "x86_64-pc-linux-gnu"

%struct.optstruct = type { ptr, ptr, ptr, i64, i32, i32, i32, i32, ptr, ptr, ptr }

@.str = private unnamed_addr constant [12 x i8] c"leave-temps\00", align 1

; Function Attrs: nounwind uwtable
define dso_local void @removeTempDir(ptr noundef %0, ptr noundef %1) #0 {
  %3 = alloca ptr, align 8
  %4 = alloca ptr, align 8
  store ptr %0, ptr %3, align 8
  store ptr %1, ptr %4, align 8
  %5 = load ptr, ptr %3, align 8
  %6 = call ptr @optget(ptr noundef %5, ptr noundef @.str)
  %7 = getelementptr inbounds %struct.optstruct, ptr %6, i32 0, i32 4
  %8 = load i32, ptr %7, align 8
  %9 = icmp ne i32 %8, 0
  br i1 %9, label %13, label %10

10:                                               ; preds = %2
  %11 = load ptr, ptr %4, align 8
  %12 = call i32 @cli_rmdirs(ptr noundef %11)
  br label %13

13:                                               ; preds = %10, %2
  ret void
}