; Function Attrs: nounwind uwtable
define dso_local void @removeTempDir(ptr noundef %0, ptr noundef %1) local_unnamed_addr #0 {
  %3 = tail call ptr @optget(ptr noundef %0, ptr noundef nonnull @.str) #25
  %4 = getelementptr inbounds i8, ptr %3, i64 32
  %5 = load i32, ptr %4, align 8
  %.not = icmp eq i32 %5, 0
  br i1 %.not, label %6, label %8

6:                                                ; preds = %2
  %7 = tail call i32 @cli_rmdirs(ptr noundef %1) #25
  br label %8

8:                                                ; preds = %6, %2
  ret void
}